; ModuleID = 'source-C-CXX/14/1502.c'
source_filename = "source-C-CXX/14/1502.c"
target datalayout = "e-m:e-p270:32:32-p271:32:32-p272:64:64-i64:64-f80:128-n8:16:32:64-S128"
target triple = "x86_64-pc-linux-gnu"

@.str = private unnamed_addr constant [3 x i8] c"%d\00", align 1

; Function Attrs: nofree nounwind sspstrong uwtable
define dso_local i32 @main() local_unnamed_addr #0 {
  %1 = alloca i32, align 4
  %2 = alloca i32, align 4
  %3 = bitcast i32* %1 to i8*
  call void @llvm.lifetime.start.p0i8(i64 4, i8* nonnull %3) #3
  %4 = bitcast i32* %2 to i8*
  call void @llvm.lifetime.start.p0i8(i64 4, i8* nonnull %4) #3
  %5 = call i32 (i8*, ...) @__isoc99_scanf(i8* getelementptr inbounds ([3 x i8], [3 x i8]* @.str, i64 0, i64 0), i32* nonnull %1)
  %6 = load i32, i32* %1, align 4, !tbaa !5
  %7 = mul i32 %6, %6
  %8 = icmp eq i32 %7, 0
  br i1 %8, label %19, label %9

9:                                                ; preds = %0
  %10 = add i32 %7, 1
  br label %11

11:                                               ; preds = %9, %16
  %12 = phi i32 [ %17, %16 ], [ 1, %9 ]
  %13 = call i32 (i8*, ...) @__isoc99_scanf(i8* getelementptr inbounds ([3 x i8], [3 x i8]* @.str, i64 0, i64 0), i32* nonnull %2)
  %14 = load i32, i32* %2, align 4, !tbaa !5
  %15 = icmp eq i32 %14, 0
  br i1 %15, label %19, label %16

16:                                               ; preds = %11
  %17 = add nuw i32 %12, 1
  %18 = icmp eq i32 %12, %7
  br i1 %18, label %19, label %11, !llvm.loop !9

19:                                               ; preds = %16, %11, %0
  %20 = phi i32 [ 1, %0 ], [ %12, %11 ], [ %10, %16 ]
  %21 = icmp ult i32 %20, %7
  br i1 %21, label %22, label %31

22:                                               ; preds = %19, %22
  %23 = phi i32 [ %25, %22 ], [ %20, %19 ]
  %24 = phi i32 [ %29, %22 ], [ undef, %19 ]
  %25 = add i32 %23, 1
  %26 = call i32 (i8*, ...) @__isoc99_scanf(i8* getelementptr inbounds ([3 x i8], [3 x i8]* @.str, i64 0, i64 0), i32* nonnull %2)
  %27 = load i32, i32* %2, align 4, !tbaa !5
  %28 = icmp eq i32 %27, 0
  %29 = select i1 %28, i32 %25, i32 %24
  %30 = icmp eq i32 %25, %7
  br i1 %30, label %31, label %22, !llvm.loop !11

31:                                               ; preds = %22, %19
  %32 = phi i32 [ undef, %19 ], [ %29, %22 ]
  %33 = load i32, i32* %1, align 4, !tbaa !5
  %34 = srem i32 %20, %33
  %35 = srem i32 %32, %33
  %36 = xor i32 %34, -1
  %37 = add i32 %35, %36
  %38 = sdiv i32 %20, %33
  %39 = sdiv i32 %32, %33
  %40 = xor i32 %38, -1
  %41 = add i32 %39, %40
  %42 = mul nsw i32 %41, %37
  %43 = call i32 (i8*, ...) @printf(i8* nonnull dereferenceable(1) getelementptr inbounds ([3 x i8], [3 x i8]* @.str, i64 0, i64 0), i32 %42)
  call void @llvm.lifetime.end.p0i8(i64 4, i8* nonnull %4) #3
  call void @llvm.lifetime.end.p0i8(i64 4, i8* nonnull %3) #3
  ret i32 0
}

; Function Attrs: argmemonly mustprogress nofree nosync nounwind willreturn
declare void @llvm.lifetime.start.p0i8(i64 immarg, i8* nocapture) #1

; Function Attrs: nofree nounwind
declare noundef i32 @__isoc99_scanf(i8* nocapture noundef readonly, ...) local_unnamed_addr #2

; Function Attrs: nofree nounwind
declare noundef i32 @printf(i8* nocapture noundef readonly, ...) local_unnamed_addr #2

; Function Attrs: argmemonly mustprogress nofree nosync nounwind willreturn
declare void @llvm.lifetime.end.p0i8(i64 immarg, i8* nocapture) #1


!llvm.module.flags = !{!0, !1, !2, !3}
!llvm.ident = !{!4}

!0 = !{i32 1, !"wchar_size", i32 4}
!1 = !{i32 7, !"PIC Level", i32 2}
!2 = !{i32 7, !"PIE Level", i32 2}
!3 = !{i32 7, !"uwtable", i32 1}
!4 = !{!"clang version 13.0.0"}
!5 = !{!6, !6, i64 0}
!6 = !{!"int", !7, i64 0}
!7 = !{!"omnipotent char", !8, i64 0}
!8 = !{!"Simple C/C++ TBAA"}
!9 = distinct !{!9, !10}
!10 = !{!"llvm.loop.mustprogress"}
!11 = distinct !{!11, !10}
